target datalayout = "e-m:e-p270:32:32-p271:32:32-p272:64:64-i64:64-i128:128-f80:128-n8:16:32:64-S128"
target triple = "x86_64-pc-linux-gnu"

%"class.YAML::Scanner" = type { %"class.YAML::Stream", %"class.std::queue", i8, i8, i8, i8, i8, %"class.std::stack", %"class.std::stack.12", %"class.YAML::ptr_vector", %"class.std::stack.22" }
%"class.YAML::Stream" = type { ptr, %"struct.YAML::Mark", i32, i8, %"class.std::deque", ptr, i64, i64 }
%"struct.YAML::Mark" = type { i32, i32, i32 }
%"class.std::deque" = type { %"class.std::_Deque_base" }
%"class.std::_Deque_base" = type { %"struct.std::_Deque_base<char, std::allocator<char>>::_Deque_impl" }
%"struct.std::_Deque_base<char, std::allocator<char>>::_Deque_impl" = type { %"struct.std::_Deque_base<char, std::allocator<char>>::_Deque_impl_data" }
%"struct.std::_Deque_base<char, std::allocator<char>>::_Deque_impl_data" = type { ptr, i64, %"struct.std::_Deque_iterator", %"struct.std::_Deque_iterator" }
%"struct.std::_Deque_iterator" = type { ptr, ptr, ptr, ptr }
%"class.std::queue" = type { %"class.std::deque.0" }
%"class.std::deque.0" = type { %"class.std::_Deque_base.1" }
%"class.std::_Deque_base.1" = type { %"struct.std::_Deque_base<YAML::Token, std::allocator<YAML::Token>>::_Deque_impl" }
%"struct.std::_Deque_base<YAML::Token, std::allocator<YAML::Token>>::_Deque_impl" = type { %"struct.std::_Deque_base<YAML::Token, std::allocator<YAML::Token>>::_Deque_impl_data" }
%"struct.std::_Deque_base<YAML::Token, std::allocator<YAML::Token>>::_Deque_impl_data" = type { ptr, i64, %"struct.std::_Deque_iterator.5", %"struct.std::_Deque_iterator.5" }
%"struct.std::_Deque_iterator.5" = type { ptr, ptr, ptr, ptr }
%"class.std::stack" = type { %"class.std::deque.6" }
%"class.std::deque.6" = type { %"class.std::_Deque_base.7" }
%"class.std::_Deque_base.7" = type { %"struct.std::_Deque_base<YAML::Scanner::SimpleKey, std::allocator<YAML::Scanner::SimpleKey>>::_Deque_impl" }
%"struct.std::_Deque_base<YAML::Scanner::SimpleKey, std::allocator<YAML::Scanner::SimpleKey>>::_Deque_impl" = type { %"struct.std::_Deque_base<YAML::Scanner::SimpleKey, std::allocator<YAML::Scanner::SimpleKey>>::_Deque_impl_data" }
%"struct.std::_Deque_base<YAML::Scanner::SimpleKey, std::allocator<YAML::Scanner::SimpleKey>>::_Deque_impl_data" = type { ptr, i64, %"struct.std::_Deque_iterator.11", %"struct.std::_Deque_iterator.11" }
%"struct.std::_Deque_iterator.11" = type { ptr, ptr, ptr, ptr }
%"class.std::stack.12" = type { %"class.std::deque.13" }
%"class.std::deque.13" = type { %"class.std::_Deque_base.14" }
%"class.std::_Deque_base.14" = type { %"struct.std::_Deque_base<YAML::Scanner::IndentMarker *, std::allocator<YAML::Scanner::IndentMarker *>>::_Deque_impl" }
%"struct.std::_Deque_base<YAML::Scanner::IndentMarker *, std::allocator<YAML::Scanner::IndentMarker *>>::_Deque_impl" = type { %"struct.std::_Deque_base<YAML::Scanner::IndentMarker *, std::allocator<YAML::Scanner::IndentMarker *>>::_Deque_impl_data" }
%"struct.std::_Deque_base<YAML::Scanner::IndentMarker *, std::allocator<YAML::Scanner::IndentMarker *>>::_Deque_impl_data" = type { ptr, i64, %"struct.std::_Deque_iterator.18", %"struct.std::_Deque_iterator.18" }
%"struct.std::_Deque_iterator.18" = type { ptr, ptr, ptr, ptr }
%"class.YAML::ptr_vector" = type { %"class.std::vector" }
%"class.std::vector" = type { %"struct.std::_Vector_base" }
%"struct.std::_Vector_base" = type { %"struct.std::_Vector_base<std::unique_ptr<YAML::Scanner::IndentMarker>, std::allocator<std::unique_ptr<YAML::Scanner::IndentMarker>>>::_Vector_impl" }
%"struct.std::_Vector_base<std::unique_ptr<YAML::Scanner::IndentMarker>, std::allocator<std::unique_ptr<YAML::Scanner::IndentMarker>>>::_Vector_impl" = type { %"struct.std::_Vector_base<std::unique_ptr<YAML::Scanner::IndentMarker>, std::allocator<std::unique_ptr<YAML::Scanner::IndentMarker>>>::_Vector_impl_data" }
%"struct.std::_Vector_base<std::unique_ptr<YAML::Scanner::IndentMarker>, std::allocator<std::unique_ptr<YAML::Scanner::IndentMarker>>>::_Vector_impl_data" = type { ptr, ptr, ptr }
%"class.std::stack.22" = type { %"class.std::deque.23" }
%"class.std::deque.23" = type { %"class.std::_Deque_base.24" }
%"class.std::_Deque_base.24" = type { %"struct.std::_Deque_base<YAML::Scanner::FLOW_MARKER, std::allocator<YAML::Scanner::FLOW_MARKER>>::_Deque_impl" }
%"struct.std::_Deque_base<YAML::Scanner::FLOW_MARKER, std::allocator<YAML::Scanner::FLOW_MARKER>>::_Deque_impl" = type { %"struct.std::_Deque_base<YAML::Scanner::FLOW_MARKER, std::allocator<YAML::Scanner::FLOW_MARKER>>::_Deque_impl_data" }
%"struct.std::_Deque_base<YAML::Scanner::FLOW_MARKER, std::allocator<YAML::Scanner::FLOW_MARKER>>::_Deque_impl_data" = type { ptr, i64, %"struct.std::_Deque_iterator.28", %"struct.std::_Deque_iterator.28" }
%"struct.std::_Deque_iterator.28" = type { ptr, ptr, ptr, ptr }
%"struct.YAML::Scanner::IndentMarker" = type { i32, i32, i32, ptr }

; Function Attrs: inlinehint mustprogress nounwind uwtable
define linkonce_odr noundef i64 @_ZSt16__deque_buf_sizem(i64 noundef %0) #3 comdat {
  %2 = alloca i64, align 8
  store i64 %0, ptr %2, align 8, !tbaa !145
  %3 = load i64, ptr %2, align 8, !tbaa !145
  %4 = icmp ult i64 %3, 512
  br i1 %4, label %5, label %8

5:                                                ; preds = %1
  %6 = load i64, ptr %2, align 8, !tbaa !145
  %7 = udiv i64 512, %6
  br label %9

8:                                                ; preds = %1
  br label %9

9:                                                ; preds = %8, %5
  %10 = phi i64 [ %7, %5 ], [ 1, %8 ]
  ret i64 %10
}

; Function Attrs: mustprogress nounwind uwtable
define linkonce_odr noundef i64 @_ZNSt15_Deque_iteratorIPN4YAML7Scanner12IndentMarkerERS3_PS3_E14_S_buffer_sizeEv() #2 comdat align 2 {
  %1 = call noundef i64 @_ZSt16__deque_buf_sizem(i64 noundef 8)
  ret i64 %1
}

; Function Attrs: mustprogress nounwind uwtable
define linkonce_odr void @_ZNSt15_Deque_iteratorIPN4YAML7Scanner12IndentMarkerERS3_PS3_E11_M_set_nodeEPS5_(ptr noundef nonnull align 8 dereferenceable(32) %0, ptr noundef %1) #2 comdat align 2 {
  %3 = alloca ptr, align 8
  %4 = alloca ptr, align 8
  store ptr %0, ptr %3, align 8, !tbaa !150
  store ptr %1, ptr %4, align 8, !tbaa !164
  %5 = load ptr, ptr %3, align 8
  %6 = load ptr, ptr %4, align 8, !tbaa !164
  %7 = getelementptr inbounds nuw %"struct.std::_Deque_iterator.18", ptr %5, i32 0, i32 3
  store ptr %6, ptr %7, align 8, !tbaa !163
  %8 = load ptr, ptr %4, align 8, !tbaa !164
  %9 = load ptr, ptr %8, align 8, !tbaa !130
  %10 = getelementptr inbounds nuw %"struct.std::_Deque_iterator.18", ptr %5, i32 0, i32 1
  store ptr %9, ptr %10, align 8, !tbaa !161
  %11 = getelementptr inbounds nuw %"struct.std::_Deque_iterator.18", ptr %5, i32 0, i32 1
  %12 = load ptr, ptr %11, align 8, !tbaa !161
  %13 = call noundef i64 @_ZNSt15_Deque_iteratorIPN4YAML7Scanner12IndentMarkerERS3_PS3_E14_S_buffer_sizeEv() #11
  %14 = getelementptr inbounds ptr, ptr %12, i64 %13
  %15 = getelementptr inbounds nuw %"struct.std::_Deque_iterator.18", ptr %5, i32 0, i32 2
  store ptr %14, ptr %15, align 8, !tbaa !162
  ret void
}

; Function Attrs: mustprogress nounwind uwtable
define linkonce_odr void @_ZNSt15_Deque_iteratorIPN4YAML7Scanner12IndentMarkerERS3_PS3_EC2ERKS6_(ptr noundef nonnull align 8 dereferenceable(32) %0, ptr noundef nonnull align 8 dereferenceable(32) %1) unnamed_addr #2 comdat align 2 {
  %3 = alloca ptr, align 8
  %4 = alloca ptr, align 8
  store ptr %0, ptr %3, align 8, !tbaa !150
  store ptr %1, ptr %4, align 8, !tbaa !150
  %5 = load ptr, ptr %3, align 8
  %6 = getelementptr inbounds nuw %"struct.std::_Deque_iterator.18", ptr %5, i32 0, i32 0
  %7 = load ptr, ptr %4, align 8, !tbaa !150
  %8 = getelementptr inbounds nuw %"struct.std::_Deque_iterator.18", ptr %7, i32 0, i32 0
  %9 = load ptr, ptr %8, align 8, !tbaa !160
  store ptr %9, ptr %6, align 8, !tbaa !160
  %10 = getelementptr inbounds nuw %"struct.std::_Deque_iterator.18", ptr %5, i32 0, i32 1
  %11 = load ptr, ptr %4, align 8, !tbaa !150
  %12 = getelementptr inbounds nuw %"struct.std::_Deque_iterator.18", ptr %11, i32 0, i32 1
  %13 = load ptr, ptr %12, align 8, !tbaa !161
  store ptr %13, ptr %10, align 8, !tbaa !161
  %14 = getelementptr inbounds nuw %"struct.std::_Deque_iterator.18", ptr %5, i32 0, i32 2
  %15 = load ptr, ptr %4, align 8, !tbaa !150
  %16 = getelementptr inbounds nuw %"struct.std::_Deque_iterator.18", ptr %15, i32 0, i32 2
  %17 = load ptr, ptr %16, align 8, !tbaa !162
  store ptr %17, ptr %14, align 8, !tbaa !162
  %18 = getelementptr inbounds nuw %"struct.std::_Deque_iterator.18", ptr %5, i32 0, i32 3
  %19 = load ptr, ptr %4, align 8, !tbaa !150
  %20 = getelementptr inbounds nuw %"struct.std::_Deque_iterator.18", ptr %19, i32 0, i32 3
  %21 = load ptr, ptr %20, align 8, !tbaa !163
  store ptr %21, ptr %18, align 8, !tbaa !163
  ret void
}

; Function Attrs: mustprogress nounwind uwtable
define linkonce_odr noundef zeroext i1 @_ZSteqRKSt15_Deque_iteratorIN4YAML7Scanner11FLOW_MARKERERS2_PS2_ES7_(ptr noundef nonnull align 8 dereferenceable(32) %0, ptr noundef nonnull align 8 dereferenceable(32) %1) #2 comdat {
  %3 = alloca ptr, align 8
  %4 = alloca ptr, align 8
  store ptr %0, ptr %3, align 8, !tbaa !225
  store ptr %1, ptr %4, align 8, !tbaa !225
  %5 = load ptr, ptr %3, align 8, !tbaa !225
  %6 = getelementptr inbounds nuw %"struct.std::_Deque_iterator.28", ptr %5, i32 0, i32 0
  %7 = load ptr, ptr %6, align 8, !tbaa !235
  %8 = load ptr, ptr %4, align 8, !tbaa !225
  %9 = getelementptr inbounds nuw %"struct.std::_Deque_iterator.28", ptr %8, i32 0, i32 0
  %10 = load ptr, ptr %9, align 8, !tbaa !235
  %11 = icmp eq ptr %7, %10
  ret i1 %11
}

; Function Attrs: mustprogress nounwind uwtable
define linkonce_odr noundef nonnull align 8 dereferenceable(8) ptr @_ZNKSt15_Deque_iteratorIPN4YAML7Scanner12IndentMarkerERS3_PS3_EdeEv(ptr noundef nonnull align 8 dereferenceable(32) %0) #2 comdat align 2 {
  %2 = alloca ptr, align 8
  store ptr %0, ptr %2, align 8, !tbaa !150
  %3 = load ptr, ptr %2, align 8
  %4 = getelementptr inbounds nuw %"struct.std::_Deque_iterator.18", ptr %3, i32 0, i32 0
  %5 = load ptr, ptr %4, align 8, !tbaa !160
  ret ptr %5
}

; Function Attrs: mustprogress nounwind uwtable
define linkonce_odr noundef nonnull align 8 dereferenceable(32) ptr @_ZNSt15_Deque_iteratorIPN4YAML7Scanner12IndentMarkerERS3_PS3_EmmEv(ptr noundef nonnull align 8 dereferenceable(32) %0) #2 comdat align 2 {
  %2 = alloca ptr, align 8
  store ptr %0, ptr %2, align 8, !tbaa !150
  %3 = load ptr, ptr %2, align 8
  %4 = getelementptr inbounds nuw %"struct.std::_Deque_iterator.18", ptr %3, i32 0, i32 0
  %5 = load ptr, ptr %4, align 8, !tbaa !160
  %6 = getelementptr inbounds nuw %"struct.std::_Deque_iterator.18", ptr %3, i32 0, i32 1
  %7 = load ptr, ptr %6, align 8, !tbaa !161
  %8 = icmp eq ptr %5, %7
  br i1 %8, label %9, label %16

9:                                                ; preds = %1
  %10 = getelementptr inbounds nuw %"struct.std::_Deque_iterator.18", ptr %3, i32 0, i32 3
  %11 = load ptr, ptr %10, align 8, !tbaa !163
  %12 = getelementptr inbounds ptr, ptr %11, i64 -1
  call void @_ZNSt15_Deque_iteratorIPN4YAML7Scanner12IndentMarkerERS3_PS3_E11_M_set_nodeEPS5_(ptr noundef nonnull align 8 dereferenceable(32) %3, ptr noundef %12) #11
  %13 = getelementptr inbounds nuw %"struct.std::_Deque_iterator.18", ptr %3, i32 0, i32 2
  %14 = load ptr, ptr %13, align 8, !tbaa !162
  %15 = getelementptr inbounds nuw %"struct.std::_Deque_iterator.18", ptr %3, i32 0, i32 0
  store ptr %14, ptr %15, align 8, !tbaa !160
  br label %16

16:                                               ; preds = %9, %1
  %17 = getelementptr inbounds nuw %"struct.std::_Deque_iterator.18", ptr %3, i32 0, i32 0
  %18 = load ptr, ptr %17, align 8, !tbaa !160
  %19 = getelementptr inbounds ptr, ptr %18, i32 -1
  store ptr %19, ptr %17, align 8, !tbaa !160
  ret ptr %3
}

; Function Attrs: mustprogress nounwind uwtable
define linkonce_odr void @_ZNSt5dequeIPN4YAML7Scanner12IndentMarkerESaIS3_EE3endEv(ptr dead_on_unwind noalias writable sret(%"struct.std::_Deque_iterator.18") align 8 %0, ptr noundef nonnull align 8 dereferenceable(80) %1) #2 comdat align 2 {
  %3 = alloca ptr, align 8
  %4 = alloca ptr, align 8
  store ptr %0, ptr %3, align 8
  store ptr %1, ptr %4, align 8, !tbaa !148
  %5 = load ptr, ptr %4, align 8
  %6 = getelementptr inbounds nuw %"class.std::_Deque_base.14", ptr %5, i32 0, i32 0
  %7 = getelementptr inbounds nuw %"struct.std::_Deque_base<YAML::Scanner::IndentMarker *, std::allocator<YAML::Scanner::IndentMarker *>>::_Deque_impl_data", ptr %6, i32 0, i32 3
  call void @_ZNSt15_Deque_iteratorIPN4YAML7Scanner12IndentMarkerERS3_PS3_EC2ERKS6_(ptr noundef nonnull align 8 dereferenceable(32) %0, ptr noundef nonnull align 8 dereferenceable(32) %7) #11
  ret void
}

; Function Attrs: mustprogress nounwind uwtable
define linkonce_odr noundef zeroext i1 @_ZSteqRKSt15_Deque_iteratorIPN4YAML7Scanner12IndentMarkerERS3_PS3_ES8_(ptr noundef nonnull align 8 dereferenceable(32) %0, ptr noundef nonnull align 8 dereferenceable(32) %1) #2 comdat {
  %3 = alloca ptr, align 8
  %4 = alloca ptr, align 8
  store ptr %0, ptr %3, align 8, !tbaa !150
  store ptr %1, ptr %4, align 8, !tbaa !150
  %5 = load ptr, ptr %3, align 8, !tbaa !150
  %6 = getelementptr inbounds nuw %"struct.std::_Deque_iterator.18", ptr %5, i32 0, i32 0
  %7 = load ptr, ptr %6, align 8, !tbaa !160
  %8 = load ptr, ptr %4, align 8, !tbaa !150
  %9 = getelementptr inbounds nuw %"struct.std::_Deque_iterator.18", ptr %8, i32 0, i32 0
  %10 = load ptr, ptr %9, align 8, !tbaa !160
  %11 = icmp eq ptr %7, %10
  ret i1 %11
}

; Function Attrs: mustprogress nounwind uwtable
define linkonce_odr noundef zeroext i1 @_ZNKSt5dequeIN4YAML7Scanner11FLOW_MARKERESaIS2_EE5emptyEv(ptr noundef nonnull align 8 dereferenceable(80) %0) #2 comdat align 2 {
  %2 = alloca ptr, align 8
  store ptr %0, ptr %2, align 8, !tbaa !223
  %3 = load ptr, ptr %2, align 8
  %4 = getelementptr inbounds nuw %"class.std::_Deque_base.24", ptr %3, i32 0, i32 0
  %5 = getelementptr inbounds nuw %"struct.std::_Deque_base<YAML::Scanner::FLOW_MARKER, std::allocator<YAML::Scanner::FLOW_MARKER>>::_Deque_impl_data", ptr %4, i32 0, i32 3
  %6 = getelementptr inbounds nuw %"class.std::_Deque_base.24", ptr %3, i32 0, i32 0
  %7 = getelementptr inbounds nuw %"struct.std::_Deque_base<YAML::Scanner::FLOW_MARKER, std::allocator<YAML::Scanner::FLOW_MARKER>>::_Deque_impl_data", ptr %6, i32 0, i32 2
  %8 = call noundef zeroext i1 @_ZSteqRKSt15_Deque_iteratorIN4YAML7Scanner11FLOW_MARKERERS2_PS2_ES7_(ptr noundef nonnull align 8 dereferenceable(32) %5, ptr noundef nonnull align 8 dereferenceable(32) %7) #11
  ret i1 %8
}

; Function Attrs: mustprogress nounwind uwtable
define linkonce_odr noundef nonnull align 8 dereferenceable(8) ptr @_ZNSt5dequeIPN4YAML7Scanner12IndentMarkerESaIS3_EE4backEv(ptr noundef nonnull align 8 dereferenceable(80) %0) #2 comdat align 2 {
  %2 = alloca ptr, align 8
  %3 = alloca %"struct.std::_Deque_iterator.18", align 8
  store ptr %0, ptr %2, align 8, !tbaa !148
  %4 = load ptr, ptr %2, align 8
  call void @llvm.lifetime.start.p0(i64 32, ptr %3) #11
  call void @_ZNSt5dequeIPN4YAML7Scanner12IndentMarkerESaIS3_EE3endEv(ptr dead_on_unwind writable sret(%"struct.std::_Deque_iterator.18") align 8 %3, ptr noundef nonnull align 8 dereferenceable(80) %4) #11
  %5 = call noundef nonnull align 8 dereferenceable(32) ptr @_ZNSt15_Deque_iteratorIPN4YAML7Scanner12IndentMarkerERS3_PS3_EmmEv(ptr noundef nonnull align 8 dereferenceable(32) %3) #11
  %6 = call noundef nonnull align 8 dereferenceable(8) ptr @_ZNKSt15_Deque_iteratorIPN4YAML7Scanner12IndentMarkerERS3_PS3_EdeEv(ptr noundef nonnull align 8 dereferenceable(32) %3) #11
  call void @llvm.lifetime.end.p0(i64 32, ptr %3) #11
  ret ptr %6
}

; Function Attrs: mustprogress nounwind uwtable
define linkonce_odr noundef zeroext i1 @_ZNKSt5dequeIPN4YAML7Scanner12IndentMarkerESaIS3_EE5emptyEv(ptr noundef nonnull align 8 dereferenceable(80) %0) #2 comdat align 2 {
  %2 = alloca ptr, align 8
  store ptr %0, ptr %2, align 8, !tbaa !148
  %3 = load ptr, ptr %2, align 8
  %4 = getelementptr inbounds nuw %"class.std::_Deque_base.14", ptr %3, i32 0, i32 0
  %5 = getelementptr inbounds nuw %"struct.std::_Deque_base<YAML::Scanner::IndentMarker *, std::allocator<YAML::Scanner::IndentMarker *>>::_Deque_impl_data", ptr %4, i32 0, i32 3
  %6 = getelementptr inbounds nuw %"class.std::_Deque_base.14", ptr %3, i32 0, i32 0
  %7 = getelementptr inbounds nuw %"struct.std::_Deque_base<YAML::Scanner::IndentMarker *, std::allocator<YAML::Scanner::IndentMarker *>>::_Deque_impl_data", ptr %6, i32 0, i32 2
  %8 = call noundef zeroext i1 @_ZSteqRKSt15_Deque_iteratorIPN4YAML7Scanner12IndentMarkerERS3_PS3_ES8_(ptr noundef nonnull align 8 dereferenceable(32) %5, ptr noundef nonnull align 8 dereferenceable(32) %7) #11
  ret i1 %8
}

; Function Attrs: mustprogress nounwind uwtable
define linkonce_odr noundef zeroext i1 @_ZNKSt5stackIN4YAML7Scanner11FLOW_MARKERESt5dequeIS2_SaIS2_EEE5emptyEv(ptr noundef nonnull align 8 dereferenceable(80) %0) #2 comdat align 2 {
  %2 = alloca ptr, align 8
  store ptr %0, ptr %2, align 8, !tbaa !75
  %3 = load ptr, ptr %2, align 8
  %4 = getelementptr inbounds nuw %"class.std::stack.22", ptr %3, i32 0, i32 0
  %5 = call noundef zeroext i1 @_ZNKSt5dequeIN4YAML7Scanner11FLOW_MARKERESaIS2_EE5emptyEv(ptr noundef nonnull align 8 dereferenceable(80) %4) #11
  ret i1 %5
}

; Function Attrs: mustprogress nounwind uwtable
define linkonce_odr noundef nonnull align 8 dereferenceable(8) ptr @_ZNSt5stackIPN4YAML7Scanner12IndentMarkerESt5dequeIS3_SaIS3_EEE3topEv(ptr noundef nonnull align 8 dereferenceable(80) %0) #2 comdat align 2 {
  %2 = alloca ptr, align 8
  store ptr %0, ptr %2, align 8, !tbaa !71
  %3 = load ptr, ptr %2, align 8
  %4 = getelementptr inbounds nuw %"class.std::stack.12", ptr %3, i32 0, i32 0
  %5 = call noundef nonnull align 8 dereferenceable(8) ptr @_ZNSt5dequeIPN4YAML7Scanner12IndentMarkerESaIS3_EE4backEv(ptr noundef nonnull align 8 dereferenceable(80) %4) #11
  ret ptr %5
}

; Function Attrs: mustprogress nounwind uwtable
define linkonce_odr noundef zeroext i1 @_ZNKSt5stackIPN4YAML7Scanner12IndentMarkerESt5dequeIS3_SaIS3_EEE5emptyEv(ptr noundef nonnull align 8 dereferenceable(80) %0) #2 comdat align 2 {
  %2 = alloca ptr, align 8
  store ptr %0, ptr %2, align 8, !tbaa !71
  %3 = load ptr, ptr %2, align 8
  %4 = getelementptr inbounds nuw %"class.std::stack.12", ptr %3, i32 0, i32 0
  %5 = call noundef zeroext i1 @_ZNKSt5dequeIPN4YAML7Scanner12IndentMarkerESaIS3_EE5emptyEv(ptr noundef nonnull align 8 dereferenceable(80) %4) #11
  ret i1 %5
}

; Function Attrs: mustprogress nounwind uwtable
define linkonce_odr noundef zeroext i1 @_ZNK4YAML7Scanner13InFlowContextEv(ptr noundef nonnull align 8 dereferenceable(488) %0) #2 comdat align 2 {
  %2 = alloca ptr, align 8
  store ptr %0, ptr %2, align 8, !tbaa !3
  %3 = load ptr, ptr %2, align 8
  %4 = getelementptr inbounds nuw %"class.YAML::Scanner", ptr %3, i32 0, i32 10
  %5 = call noundef zeroext i1 @_ZNKSt5stackIN4YAML7Scanner11FLOW_MARKERESt5dequeIS2_SaIS2_EEE5emptyEv(ptr noundef nonnull align 8 dereferenceable(80) %4)
  %6 = xor i1 %5, true
  ret i1 %6
}

; Function Attrs: mustprogress uwtable
define void @_ZN4YAML7Scanner13PopAllIndentsEv(ptr noundef nonnull align 8 dereferenceable(488) %0) #0 align 2 {
  %2 = alloca ptr, align 8
  %3 = alloca ptr, align 8
  %4 = alloca i32, align 4
  store ptr %0, ptr %2, align 8, !tbaa !3
  %5 = load ptr, ptr %2, align 8
  %6 = call noundef zeroext i1 @_ZNK4YAML7Scanner13InFlowContextEv(ptr noundef nonnull align 8 dereferenceable(488) %5)
  br i1 %6, label %7, label %8

7:                                                ; preds = %1
  br label %26

8:                                                ; preds = %1
  br label %9

9:                                                ; preds = %25, %8
  %10 = getelementptr inbounds nuw %"class.YAML::Scanner", ptr %5, i32 0, i32 8
  %11 = call noundef zeroext i1 @_ZNKSt5stackIPN4YAML7Scanner12IndentMarkerESt5dequeIS3_SaIS3_EEE5emptyEv(ptr noundef nonnull align 8 dereferenceable(80) %10)
  %12 = xor i1 %11, true
  br i1 %12, label %13, label %26

13:                                               ; preds = %9
  call void @llvm.lifetime.start.p0(i64 8, ptr %3) #11
  %14 = getelementptr inbounds nuw %"class.YAML::Scanner", ptr %5, i32 0, i32 8
  %15 = call noundef nonnull align 8 dereferenceable(8) ptr @_ZNSt5stackIPN4YAML7Scanner12IndentMarkerESt5dequeIS3_SaIS3_EEE3topEv(ptr noundef nonnull align 8 dereferenceable(80) %14)
  %16 = load ptr, ptr %15, align 8, !tbaa !97
  store ptr %16, ptr %3, align 8, !tbaa !97
  %17 = load ptr, ptr %3, align 8, !tbaa !97
  %18 = getelementptr inbounds nuw %"struct.YAML::Scanner::IndentMarker", ptr %17, i32 0, i32 1
  %19 = load i32, ptr %18, align 4, !tbaa !106
  %20 = icmp eq i32 %19, 2
  br i1 %20, label %21, label %22

21:                                               ; preds = %13
  store i32 3, ptr %4, align 4
  br label %23

22:                                               ; preds = %13
  call void @_ZN4YAML7Scanner9PopIndentEv(ptr noundef nonnull align 8 dereferenceable(488) %5)
  store i32 0, ptr %4, align 4
  br label %23

23:                                               ; preds = %22, %21
  call void @llvm.lifetime.end.p0(i64 8, ptr %3) #11
  %24 = load i32, ptr %4, align 4
  switch i32 %24, label %27 [
    i32 0, label %25
    i32 3, label %26
  ]

25:                                               ; preds = %23
  br label %9, !llvm.loop !131

26:                                               ; preds = %7, %23, %9
  ret void

27:                                               ; preds = %23
  unreachable
}

; Function Attrs: mustprogress nounwind uwtable
define linkonce_odr void @_ZN4YAML6Stream11ResetColumnEv(ptr noundef nonnull align 8 dereferenceable(136) %0) #2 comdat align 2 {
  %2 = alloca ptr, align 8
  store ptr %0, ptr %2, align 8, !tbaa !93
  %3 = load ptr, ptr %2, align 8
  %4 = getelementptr inbounds nuw %"class.YAML::Stream", ptr %3, i32 0, i32 1
  %5 = getelementptr inbounds nuw %"struct.YAML::Mark", ptr %4, i32 0, i32 2
  store i32 0, ptr %5, align 8, !tbaa !110
  ret void
}

; Function Attrs: mustprogress nounwind uwtable
define linkonce_odr noundef i32 @_ZNK4YAML6Stream6columnEv(ptr noundef nonnull align 8 dereferenceable(136) %0) #2 comdat align 2 {
  %2 = alloca ptr, align 8
  store ptr %0, ptr %2, align 8, !tbaa !93
  %3 = load ptr, ptr %2, align 8
  %4 = getelementptr inbounds nuw %"class.YAML::Stream", ptr %3, i32 0, i32 1
  %5 = getelementptr inbounds nuw %"struct.YAML::Mark", ptr %4, i32 0, i32 2
  %6 = load i32, ptr %5, align 8, !tbaa !110
  ret i32 %6
}

; Function Attrs: mustprogress uwtable
define void @_ZN4YAML7Scanner9EndStreamEv(ptr noundef nonnull align 8 dereferenceable(488) %0) #0 align 2 {
  %2 = alloca ptr, align 8
  store ptr %0, ptr %2, align 8, !tbaa !3
  %3 = load ptr, ptr %2, align 8
  %4 = getelementptr inbounds nuw %"class.YAML::Scanner", ptr %3, i32 0, i32 0
  %5 = call noundef i32 @_ZNK4YAML6Stream6columnEv(ptr noundef nonnull align 8 dereferenceable(136) %4)
  %6 = icmp sgt i32 %5, 0
  br i1 %6, label %7, label %9

7:                                                ; preds = %1
  %8 = getelementptr inbounds nuw %"class.YAML::Scanner", ptr %3, i32 0, i32 0
  call void @_ZN4YAML6Stream11ResetColumnEv(ptr noundef nonnull align 8 dereferenceable(136) %8)
  br label %9

9:                                                ; preds = %7, %1
  call void @_ZN4YAML7Scanner13PopAllIndentsEv(ptr noundef nonnull align 8 dereferenceable(488) %3)
  call void @_ZN4YAML7Scanner16PopAllSimpleKeysEv(ptr noundef nonnull align 8 dereferenceable(488) %3)
  %10 = getelementptr inbounds nuw %"class.YAML::Scanner", ptr %3, i32 0, i32 4
  store i8 0, ptr %10, align 2, !tbaa !64
  %11 = getelementptr inbounds nuw %"class.YAML::Scanner", ptr %3, i32 0, i32 5
  store i8 0, ptr %11, align 1, !tbaa !65
  %12 = getelementptr inbounds nuw %"class.YAML::Scanner", ptr %3, i32 0, i32 3
  store i8 1, ptr %12, align 1, !tbaa !63
  ret void
}