; Function Attrs: mustprogress uwtable
define void @_ZN4YAML7Scanner9EndStreamEv(ptr noundef nonnull align 8 dereferenceable(488) %0) local_unnamed_addr #0 align 2 {
  %2 = getelementptr inbounds nuw i8, ptr %0, i64 16
  %3 = load i32, ptr %2, align 8, !tbaa !98
  %4 = icmp sgt i32 %3, 0
  br i1 %4, label %5, label %6

5:                                                ; preds = %1
  store i32 0, ptr %2, align 8, !tbaa !98
  br label %6

6:                                                ; preds = %5, %1
  %7 = getelementptr inbounds nuw i8, ptr %0, i64 456
  %8 = getelementptr inbounds nuw i8, ptr %0, i64 424
  %9 = load ptr, ptr %7, align 8, !tbaa !99
  %10 = load ptr, ptr %8, align 8, !tbaa !99
  %.not.i = icmp eq ptr %9, %10
  br i1 %.not.i, label %.preheader.i, label %_ZN4YAML7Scanner13PopAllIndentsEv.exit

.preheader.i:                                     ; preds = %6
  %11 = getelementptr inbounds nuw i8, ptr %0, i64 352
  %12 = getelementptr inbounds nuw i8, ptr %0, i64 320
  %13 = load ptr, ptr %11, align 8, !tbaa !100
  %14 = load ptr, ptr %12, align 8, !tbaa !100
  %15 = icmp eq ptr %13, %14
  br i1 %15, label %_ZN4YAML7Scanner13PopAllIndentsEv.exit, label %.lr.ph.i

.lr.ph.i:                                         ; preds = %.preheader.i
  %16 = getelementptr inbounds nuw i8, ptr %0, i64 360
  %17 = getelementptr inbounds nuw i8, ptr %0, i64 376
  br label %18

18:                                               ; preds = %33, %.lr.ph.i
  %19 = phi ptr [ %13, %.lr.ph.i ], [ %34, %33 ]
  %20 = load ptr, ptr %16, align 8, !tbaa !101, !noalias !150
  %21 = icmp eq ptr %19, %20
  br i1 %21, label %22, label %_ZNSt5stackIPN4YAML7Scanner12IndentMarkerESt5dequeIS3_SaIS3_EEE3topEv.exit.i

22:                                               ; preds = %18
  %23 = load ptr, ptr %17, align 8, !tbaa !105, !noalias !150
  %24 = getelementptr inbounds i8, ptr %23, i64 -8
  %25 = load ptr, ptr %24, align 8, !tbaa !24
  %26 = getelementptr inbounds nuw i8, ptr %25, i64 512
  br label %_ZNSt5stackIPN4YAML7Scanner12IndentMarkerESt5dequeIS3_SaIS3_EEE3topEv.exit.i

_ZNSt5stackIPN4YAML7Scanner12IndentMarkerESt5dequeIS3_SaIS3_EEE3topEv.exit.i: ; preds = %22, %18
  %27 = phi ptr [ %26, %22 ], [ %19, %18 ]
  %28 = getelementptr inbounds i8, ptr %27, i64 -8
  %29 = load ptr, ptr %28, align 8, !tbaa !10
  %30 = getelementptr inbounds nuw i8, ptr %29, i64 4
  %31 = load i32, ptr %30, align 4, !tbaa !106
  %32 = icmp eq i32 %31, 2
  br i1 %32, label %_ZN4YAML7Scanner13PopAllIndentsEv.exit, label %33

33:                                               ; preds = %_ZNSt5stackIPN4YAML7Scanner12IndentMarkerESt5dequeIS3_SaIS3_EEE3topEv.exit.i
  tail call void @_ZN4YAML7Scanner9PopIndentEv(ptr noundef nonnull align 8 dereferenceable(488) %0)
  %34 = load ptr, ptr %11, align 8, !tbaa !100
  %35 = load ptr, ptr %12, align 8, !tbaa !100
  %36 = icmp eq ptr %34, %35
  br i1 %36, label %_ZN4YAML7Scanner13PopAllIndentsEv.exit, label %18

_ZN4YAML7Scanner13PopAllIndentsEv.exit:           ; preds = %_ZNSt5stackIPN4YAML7Scanner12IndentMarkerESt5dequeIS3_SaIS3_EEE3topEv.exit.i, %33, %6, %.preheader.i
  tail call void @_ZN4YAML7Scanner16PopAllSimpleKeysEv(ptr noundef nonnull align 8 dereferenceable(488) %0)
  %37 = getelementptr inbounds nuw i8, ptr %0, i64 218
  store i8 0, ptr %37, align 2, !tbaa !110
  %38 = getelementptr inbounds nuw i8, ptr %0, i64 219
  store i8 0, ptr %38, align 1, !tbaa !111
  %39 = getelementptr inbounds nuw i8, ptr %0, i64 217
  store i8 1, ptr %39, align 1, !tbaa !60
  ret void
}